; Function Attrs: mustprogress uwtable
define noundef nonnull align 8 dereferenceable(8) ptr @_ZN8proxygenlsERSoNS_10HTTPMethodE(ptr noundef nonnull returned align 8 dereferenceable(8) %out, i32 noundef %method) local_unnamed_addr #0 {
entry:
  %call.i = tail call fastcc noundef nonnull align 8 dereferenceable(24) ptr @_ZN12_GLOBAL__N_116getMethodStringsB5cxx11Ev()
  %conv.i = zext i32 %method to i64
  %0 = load ptr, ptr %call.i, align 8
  %add.ptr.i.i = getelementptr inbounds nuw %"class.std::__cxx11::basic_string", ptr %0, i64 %conv.i
  %call1 = tail call noundef nonnull align 8 dereferenceable(8) ptr @_ZStlsIcSt11char_traitsIcESaIcEERSt13basic_ostreamIT_T0_ES7_RKNSt7__cxx1112basic_stringIS4_S5_T1_EE(ptr noundef nonnull align 8 dereferenceable(8) %out, ptr noundef nonnull align 8 dereferenceable(32) %add.ptr.i.i)
  ret ptr %out
}